target datalayout = "e-m:e-p270:32:32-p271:32:32-p272:64:64-i64:64-i128:128-f80:128-n8:16:32:64-S128"
target triple = "x86_64-unknown-linux-gnu"

%class.b2ChainShape = type <{ %class.b2Shape, ptr, i32, %struct.b2Vec2, %struct.b2Vec2, [4 x i8] }>
%class.b2Shape = type { ptr, i32, float }
%struct.b2Vec2 = type { float, float }
%class.b2EdgeShape = type <{ %class.b2Shape, %struct.b2Vec2, %struct.b2Vec2, %struct.b2Vec2, %struct.b2Vec2, i8, [7 x i8] }>

; Function Attrs: mustprogress nounwind uwtable
define void @_ZNK12b2ChainShape12GetChildEdgeEP11b2EdgeShapei(ptr noundef nonnull align 8 dereferenceable(44) %this, ptr noundef %edge, i32 noundef %index) #0 align 2 {
entry:
  %this.addr = alloca ptr, align 8
  %edge.addr = alloca ptr, align 8
  %index.addr = alloca i32, align 4
  store ptr %this, ptr %this.addr, align 8
  store ptr %edge, ptr %edge.addr, align 8
  store i32 %index, ptr %index.addr, align 4
  %this1 = load ptr, ptr %this.addr, align 8
  %0 = load ptr, ptr %edge.addr, align 8
  %m_type = getelementptr inbounds %class.b2Shape, ptr %0, i32 0, i32 1
  store i32 1, ptr %m_type, align 8
  %m_radius = getelementptr inbounds %class.b2Shape, ptr %this1, i32 0, i32 2
  %1 = load float, ptr %m_radius, align 4
  %2 = load ptr, ptr %edge.addr, align 8
  %m_radius2 = getelementptr inbounds %class.b2Shape, ptr %2, i32 0, i32 2
  store float %1, ptr %m_radius2, align 4
  %m_vertices = getelementptr inbounds %class.b2ChainShape, ptr %this1, i32 0, i32 1
  %3 = load ptr, ptr %m_vertices, align 8
  %4 = load i32, ptr %index.addr, align 4
  %add = add nsw i32 %4, 0
  %idxprom = sext i32 %add to i64
  %arrayidx = getelementptr inbounds %struct.b2Vec2, ptr %3, i64 %idxprom
  %5 = load ptr, ptr %edge.addr, align 8
  %m_vertex1 = getelementptr inbounds %class.b2EdgeShape, ptr %5, i32 0, i32 1
  call void @llvm.memcpy.p0.p0.i64(ptr align 8 %m_vertex1, ptr align 4 %arrayidx, i64 8, i1 false)
  %m_vertices3 = getelementptr inbounds %class.b2ChainShape, ptr %this1, i32 0, i32 1
  %6 = load ptr, ptr %m_vertices3, align 8
  %7 = load i32, ptr %index.addr, align 4
  %add4 = add nsw i32 %7, 1
  %idxprom5 = sext i32 %add4 to i64
  %arrayidx6 = getelementptr inbounds %struct.b2Vec2, ptr %6, i64 %idxprom5
  %8 = load ptr, ptr %edge.addr, align 8
  %m_vertex2 = getelementptr inbounds %class.b2EdgeShape, ptr %8, i32 0, i32 2
  call void @llvm.memcpy.p0.p0.i64(ptr align 8 %m_vertex2, ptr align 4 %arrayidx6, i64 8, i1 false)
  %9 = load ptr, ptr %edge.addr, align 8
  %m_oneSided = getelementptr inbounds %class.b2EdgeShape, ptr %9, i32 0, i32 5
  store i8 1, ptr %m_oneSided, align 8
  %10 = load i32, ptr %index.addr, align 4
  %cmp = icmp sgt i32 %10, 0
  br i1 %cmp, label %if.then, label %if.else

if.then:                                          ; preds = %entry
  %m_vertices7 = getelementptr inbounds %class.b2ChainShape, ptr %this1, i32 0, i32 1
  %11 = load ptr, ptr %m_vertices7, align 8
  %12 = load i32, ptr %index.addr, align 4
  %sub = sub nsw i32 %12, 1
  %idxprom8 = sext i32 %sub to i64
  %arrayidx9 = getelementptr inbounds %struct.b2Vec2, ptr %11, i64 %idxprom8
  %13 = load ptr, ptr %edge.addr, align 8
  %m_vertex0 = getelementptr inbounds %class.b2EdgeShape, ptr %13, i32 0, i32 3
  call void @llvm.memcpy.p0.p0.i64(ptr align 8 %m_vertex0, ptr align 4 %arrayidx9, i64 8, i1 false)
  br label %if.end

if.else:                                          ; preds = %entry
  %m_prevVertex = getelementptr inbounds %class.b2ChainShape, ptr %this1, i32 0, i32 3
  %14 = load ptr, ptr %edge.addr, align 8
  %m_vertex010 = getelementptr inbounds %class.b2EdgeShape, ptr %14, i32 0, i32 3
  call void @llvm.memcpy.p0.p0.i64(ptr align 8 %m_vertex010, ptr align 4 %m_prevVertex, i64 8, i1 false)
  br label %if.end

if.end:                                           ; preds = %if.else, %if.then
  %15 = load i32, ptr %index.addr, align 4
  %m_count = getelementptr inbounds %class.b2ChainShape, ptr %this1, i32 0, i32 2
  %16 = load i32, ptr %m_count, align 8
  %sub11 = sub nsw i32 %16, 2
  %cmp12 = icmp slt i32 %15, %sub11
  br i1 %cmp12, label %if.then13, label %if.else18

if.then13:                                        ; preds = %if.end
  %m_vertices14 = getelementptr inbounds %class.b2ChainShape, ptr %this1, i32 0, i32 1
  %17 = load ptr, ptr %m_vertices14, align 8
  %18 = load i32, ptr %index.addr, align 4
  %add15 = add nsw i32 %18, 2
  %idxprom16 = sext i32 %add15 to i64
  %arrayidx17 = getelementptr inbounds %struct.b2Vec2, ptr %17, i64 %idxprom16
  %19 = load ptr, ptr %edge.addr, align 8
  %m_vertex3 = getelementptr inbounds %class.b2EdgeShape, ptr %19, i32 0, i32 4
  call void @llvm.memcpy.p0.p0.i64(ptr align 8 %m_vertex3, ptr align 4 %arrayidx17, i64 8, i1 false)
  br label %if.end20

if.else18:                                        ; preds = %if.end
  %m_nextVertex = getelementptr inbounds %class.b2ChainShape, ptr %this1, i32 0, i32 4
  %20 = load ptr, ptr %edge.addr, align 8
  %m_vertex319 = getelementptr inbounds %class.b2EdgeShape, ptr %20, i32 0, i32 4
  call void @llvm.memcpy.p0.p0.i64(ptr align 8 %m_vertex319, ptr align 4 %m_nextVertex, i64 8, i1 false)
  br label %if.end20

if.end20:                                         ; preds = %if.else18, %if.then13
  ret void
}