; Function Attrs: mustprogress nofree norecurse nosync nounwind willreturn memory(read, argmem: readwrite, inaccessiblemem: none) uwtable
define void @_ZNK12b2ChainShape12GetChildEdgeEP11b2EdgeShapei(ptr nocapture noundef nonnull readonly align 8 dereferenceable(44) %this, ptr nocapture noundef writeonly %edge, i32 noundef %index) local_unnamed_addr #7 align 2 {
entry:
  %m_type = getelementptr inbounds i8, ptr %edge, i64 8
  store i32 1, ptr %m_type, align 8
  %m_radius = getelementptr inbounds i8, ptr %this, i64 12
  %0 = load float, ptr %m_radius, align 4
  %m_radius2 = getelementptr inbounds i8, ptr %edge, i64 12
  store float %0, ptr %m_radius2, align 4
  %m_vertices = getelementptr inbounds i8, ptr %this, i64 16
  %1 = load ptr, ptr %m_vertices, align 8
  %idxprom = sext i32 %index to i64
  %arrayidx = getelementptr inbounds %struct.b2Vec2, ptr %1, i64 %idxprom
  %m_vertex1 = getelementptr inbounds i8, ptr %edge, i64 16
  %2 = load i64, ptr %arrayidx, align 4
  store i64 %2, ptr %m_vertex1, align 8
  %3 = load ptr, ptr %m_vertices, align 8
  %4 = getelementptr %struct.b2Vec2, ptr %3, i64 %idxprom
  %arrayidx6 = getelementptr i8, ptr %4, i64 8
  %m_vertex2 = getelementptr inbounds i8, ptr %edge, i64 24
  %5 = load i64, ptr %arrayidx6, align 4
  store i64 %5, ptr %m_vertex2, align 8
  %m_oneSided = getelementptr inbounds i8, ptr %edge, i64 48
  store i8 1, ptr %m_oneSided, align 8
  %cmp = icmp sgt i32 %index, 0
  %6 = load ptr, ptr %m_vertices, align 8
  %7 = zext nneg i32 %index to i64
  %8 = getelementptr %struct.b2Vec2, ptr %6, i64 %7
  %arrayidx9 = getelementptr i8, ptr %8, i64 -8
  %m_prevVertex = getelementptr inbounds i8, ptr %this, i64 28
  %.sink.in = select i1 %cmp, ptr %arrayidx9, ptr %m_prevVertex
  %.sink = load i64, ptr %.sink.in, align 4
  %9 = getelementptr inbounds i8, ptr %edge, i64 32
  store i64 %.sink, ptr %9, align 8
  %m_count = getelementptr inbounds i8, ptr %this, i64 24
  %10 = load i32, ptr %m_count, align 8
  %sub11 = add nsw i32 %10, -2
  %cmp12 = icmp sgt i32 %sub11, %index
  %11 = load ptr, ptr %m_vertices, align 8
  %12 = getelementptr %struct.b2Vec2, ptr %11, i64 %idxprom
  %arrayidx17 = getelementptr i8, ptr %12, i64 16
  %m_nextVertex = getelementptr inbounds i8, ptr %this, i64 36
  %.sink14.in = select i1 %cmp12, ptr %arrayidx17, ptr %m_nextVertex
  %.sink14 = load i64, ptr %.sink14.in, align 4
  %13 = getelementptr inbounds i8, ptr %edge, i64 40
  store i64 %.sink14, ptr %13, align 8
  ret void
}